; Function Attrs: nofree nosync nounwind memory(read, argmem: readwrite, inaccessiblemem: none) uwtable
define void @Kit_DsdExpandCollectAnd_rec(ptr noundef readonly captures(none) %0, i32 noundef %1, ptr noundef writeonly captures(none) %2, ptr noundef captures(none) %3) local_unnamed_addr #14 {
  %5 = ashr i32 %1, 1
  %6 = load i16, ptr %0, align 8, !tbaa !34
  %7 = zext i16 %6 to i32
  %8 = icmp slt i32 %5, %7
  br i1 %8, label %Kit_DsdNtkObj.exit, label %Kit_DsdNtkObj.exit.thread

Kit_DsdNtkObj.exit.thread:                        ; preds = %4
  %9 = getelementptr inbounds nuw i8, ptr %0, i64 24
  %10 = load ptr, ptr %9, align 8, !tbaa !40
  %11 = sub nsw i32 %5, %7
  %12 = sext i32 %11 to i64
  %13 = getelementptr inbounds ptr, ptr %10, i64 %12
  %14 = load ptr, ptr %13, align 8, !tbaa !41
  %15 = and i32 %1, 1
  %.not18 = icmp eq i32 %15, 0
  br i1 %.not18, label %16, label %Kit_DsdNtkObj.exit

16:                                               ; preds = %Kit_DsdNtkObj.exit.thread
  %17 = load i32, ptr %14, align 4
  %18 = and i32 %17, 448
  %.not17 = icmp eq i32 %18, 192
  br i1 %.not17, label %.preheader, label %Kit_DsdNtkObj.exit

.preheader:                                       ; preds = %16
  %.not = icmp ult i32 %17, 67108864
  br i1 %.not, label %.critedge, label %.lr.ph

.lr.ph:                                           ; preds = %.preheader
  %19 = getelementptr inbounds nuw i8, ptr %14, i64 4
  br label %24

Kit_DsdNtkObj.exit:                               ; preds = %4, %Kit_DsdNtkObj.exit.thread, %16
  %20 = load i32, ptr %3, align 4, !tbaa !20
  %21 = add nsw i32 %20, 1
  store i32 %21, ptr %3, align 4, !tbaa !20
  %22 = sext i32 %20 to i64
  %23 = getelementptr inbounds i32, ptr %2, i64 %22
  store i32 %1, ptr %23, align 4, !tbaa !20
  br label %.critedge

24:                                               ; preds = %.lr.ph, %24
  %indvars.iv = phi i64 [ 0, %.lr.ph ], [ %indvars.iv.next, %24 ]
  %25 = getelementptr inbounds nuw [0 x i16], ptr %19, i64 0, i64 %indvars.iv
  %26 = load i16, ptr %25, align 2, !tbaa !49
  %27 = zext i16 %26 to i32
  tail call void @Kit_DsdExpandCollectAnd_rec(ptr noundef nonnull %0, i32 noundef %27, ptr noundef %2, ptr noundef %3)
  %indvars.iv.next = add nuw nsw i64 %indvars.iv, 1
  %28 = load i32, ptr %14, align 4
  %29 = lshr i32 %28, 26
  %30 = zext nneg i32 %29 to i64
  %31 = icmp samesign ult i64 %indvars.iv.next, %30
  br i1 %31, label %24, label %.critedge, !llvm.loop !91

.critedge:                                        ; preds = %24, %.preheader, %Kit_DsdNtkObj.exit
  ret void
}